; ModuleID = '22/649.c'
source_filename = "22/649.c"
target datalayout = "e-m:e-p270:32:32-p271:32:32-p272:64:64-i64:64-f80:128-n8:16:32:64-S128"
target triple = "x86_64-pc-linux-gnu"

@.str = private unnamed_addr constant [3 x i8] c"%d\00", align 1
@.str.1 = private unnamed_addr constant [3 x i8] c"No\00", align 1

; Function Attrs: noinline nounwind uwtable
define dso_local void @main() #0 {
  %1 = alloca i32, align 4
  %2 = alloca i32, align 4
  %3 = alloca [300 x i32], align 16
  %4 = alloca i32, align 4
  %5 = alloca i8, align 1
  store i32 0, i32* %1, align 4
  store i32 0, i32* %2, align 4
  store i32 -1, i32* %4, align 4
  br label %6

6:                                                ; preds = %14, %0
  %7 = load i32, i32* %2, align 4
  %8 = add nsw i32 %7, 1
  store i32 %8, i32* %2, align 4
  %9 = sext i32 %7 to i64
  %10 = getelementptr inbounds [300 x i32], [300 x i32]* %3, i64 0, i64 %9
  %11 = call i32 (i8*, ...) @__isoc99_scanf(i8* getelementptr inbounds ([3 x i8], [3 x i8]* @.str, i64 0, i64 0), i32* %10)
  %12 = call i32 @getchar()
  %13 = trunc i32 %12 to i8
  store i8 %13, i8* %5, align 1
  br label %14

14:                                               ; preds = %6
  %15 = load i8, i8* %5, align 1
  %16 = sext i8 %15 to i32
  %17 = icmp eq i32 %16, 44
  br i1 %17, label %6, label %18

18:                                               ; preds = %14
  store i32 0, i32* %1, align 4
  br label %19

19:                                               ; preds = %36, %18
  %20 = load i32, i32* %1, align 4
  %21 = load i32, i32* %2, align 4
  %22 = icmp slt i32 %20, %21
  br i1 %22, label %23, label %39

23:                                               ; preds = %19
  %24 = load i32, i32* %1, align 4
  %25 = sext i32 %24 to i64
  %26 = getelementptr inbounds [300 x i32], [300 x i32]* %3, i64 0, i64 %25
  %27 = load i32, i32* %26, align 4
  %28 = load i32, i32* %4, align 4
  %29 = icmp sgt i32 %27, %28
  br i1 %29, label %30, label %35

30:                                               ; preds = %23
  %31 = load i32, i32* %1, align 4
  %32 = sext i32 %31 to i64
  %33 = getelementptr inbounds [300 x i32], [300 x i32]* %3, i64 0, i64 %32
  %34 = load i32, i32* %33, align 4
  store i32 %34, i32* %4, align 4
  br label %35

35:                                               ; preds = %30, %23
  br label %36

36:                                               ; preds = %35
  %37 = load i32, i32* %1, align 4
  %38 = add nsw i32 %37, 1
  store i32 %38, i32* %1, align 4
  br label %19

39:                                               ; preds = %19
  store i32 0, i32* %1, align 4
  br label %40

40:                                               ; preds = %56, %39
  %41 = load i32, i32* %1, align 4
  %42 = load i32, i32* %2, align 4
  %43 = icmp slt i32 %41, %42
  br i1 %43, label %44, label %59

44:                                               ; preds = %40
  %45 = load i32, i32* %1, align 4
  %46 = sext i32 %45 to i64
  %47 = getelementptr inbounds [300 x i32], [300 x i32]* %3, i64 0, i64 %46
  %48 = load i32, i32* %47, align 4
  %49 = load i32, i32* %4, align 4
  %50 = icmp eq i32 %48, %49
  br i1 %50, label %51, label %55

51:                                               ; preds = %44
  %52 = load i32, i32* %1, align 4
  %53 = sext i32 %52 to i64
  %54 = getelementptr inbounds [300 x i32], [300 x i32]* %3, i64 0, i64 %53
  store i32 0, i32* %54, align 4
  br label %55

55:                                               ; preds = %51, %44
  br label %56

56:                                               ; preds = %55
  %57 = load i32, i32* %1, align 4
  %58 = add nsw i32 %57, 1
  store i32 %58, i32* %1, align 4
  br label %40

59:                                               ; preds = %40
  store i32 0, i32* %4, align 4
  store i32 0, i32* %1, align 4
  br label %60

60:                                               ; preds = %77, %59
  %61 = load i32, i32* %1, align 4
  %62 = load i32, i32* %2, align 4
  %63 = icmp slt i32 %61, %62
  br i1 %63, label %64, label %80

64:                                               ; preds = %60
  %65 = load i32, i32* %1, align 4
  %66 = sext i32 %65 to i64
  %67 = getelementptr inbounds [300 x i32], [300 x i32]* %3, i64 0, i64 %66
  %68 = load i32, i32* %67, align 4
  %69 = load i32, i32* %4, align 4
  %70 = icmp sgt i32 %68, %69
  br i1 %70, label %71, label %76

71:                                               ; preds = %64
  %72 = load i32, i32* %1, align 4
  %73 = sext i32 %72 to i64
  %74 = getelementptr inbounds [300 x i32], [300 x i32]* %3, i64 0, i64 %73
  %75 = load i32, i32* %74, align 4
  store i32 %75, i32* %4, align 4
  br label %76

76:                                               ; preds = %71, %64
  br label %77

77:                                               ; preds = %76
  %78 = load i32, i32* %1, align 4
  %79 = add nsw i32 %78, 1
  store i32 %79, i32* %1, align 4
  br label %60

80:                                               ; preds = %60
  %81 = load i32, i32* %4, align 4
  %82 = icmp ne i32 %81, 0
  br i1 %82, label %83, label %86

83:                                               ; preds = %80
  %84 = load i32, i32* %4, align 4
  %85 = call i32 (i8*, ...) @printf(i8* getelementptr inbounds ([3 x i8], [3 x i8]* @.str, i64 0, i64 0), i32 %84)
  br label %88

86:                                               ; preds = %80
  %87 = call i32 (i8*, ...) @printf(i8* getelementptr inbounds ([3 x i8], [3 x i8]* @.str.1, i64 0, i64 0))
  br label %88

88:                                               ; preds = %86, %83
  ret void
}

declare dso_local i32 @__isoc99_scanf(i8*, ...) #1

declare dso_local i32 @getchar() #1

declare dso_local i32 @printf(i8*, ...) #1


!llvm.module.flags = !{!0}
!llvm.ident = !{!1}

!0 = !{i32 1, !"wchar_size", i32 4}
!1 = !{!"clang version 10.0.0-4ubuntu1 "}
